target datalayout = "e-m:e-p270:32:32-p271:32:32-p272:64:64-i64:64-i128:128-f80:128-n8:16:32:64-S128"
target triple = "x86_64-unknown-linux-gnu"

%struct.typeInterface = type { ptr, ptr, ptr, ptr, ptr }
%struct.sdsConfigData = type { ptr, ptr, ptr, i32 }
%struct.enumConfigData = type { ptr, ptr, i32, ptr }
%struct.boolConfigData = type { ptr, i32, ptr }
%struct.standardConfig = type { ptr, ptr, i32, %struct.typeInterface, %union.typeData, i32, ptr }
%union.typeData = type { %struct.numericConfigData }
%struct.numericConfigData = type { %union.anon, i32, i32, i64, i64, i64, ptr }
%union.anon = type { ptr }

@configs = dso_local global ptr null, align 8
@.str.50 = private unnamed_addr constant [9 x i8] c"config.c\00", align 1
@.str.83 = private unnamed_addr constant [22 x i8] c"Config name not found\00", align 1
@.str.84 = private unnamed_addr constant [7 x i8] c"config\00", align 1
@.str.85 = private unnamed_addr constant [45 x i8] c"Config type of module config is not allowed.\00", align 1

; Function Attrs: nounwind uwtable
define internal ptr @lookupConfig(ptr noundef %name) #0 {
entry:
  %name.addr = alloca ptr, align 8
  %de = alloca ptr, align 8
  store ptr %name, ptr %name.addr, align 8
  %0 = load ptr, ptr @configs, align 8
  %1 = load ptr, ptr %name.addr, align 8
  %call = call ptr @dictFind(ptr noundef %0, ptr noundef %1)
  store ptr %call, ptr %de, align 8
  %2 = load ptr, ptr %de, align 8
  %tobool = icmp ne ptr %2, null
  br i1 %tobool, label %cond.true, label %cond.false

cond.true:                                        ; preds = %entry
  %3 = load ptr, ptr %de, align 8
  %call1 = call ptr @dictGetVal(ptr noundef %3)
  br label %cond.end

cond.false:                                       ; preds = %entry
  br label %cond.end

cond.end:                                         ; preds = %cond.false, %cond.true
  %cond = phi ptr [ %call1, %cond.true ], [ null, %cond.false ]
  ret ptr %cond
}

; Function Attrs: nounwind uwtable
define dso_local i32 @performModuleConfigSetDefaultFromName(ptr noundef %name, ptr noundef %err) #0 {
entry:
  %retval = alloca i32, align 4
  %name.addr = alloca ptr, align 8
  %err.addr = alloca ptr, align 8
  %config = alloca ptr, align 8
  store ptr %name, ptr %name.addr, align 8
  store ptr %err, ptr %err.addr, align 8
  %0 = load ptr, ptr %name.addr, align 8
  %call = call ptr @lookupConfig(ptr noundef %0)
  store ptr %call, ptr %config, align 8
  %1 = load ptr, ptr %config, align 8
  %tobool = icmp ne ptr %1, null
  %lnot = xor i1 %tobool, true
  %lnot1 = xor i1 %lnot, true
  %lnot.ext = zext i1 %lnot1 to i32
  %conv = sext i32 %lnot.ext to i64
  %tobool2 = icmp ne i64 %conv, 0
  br i1 %tobool2, label %cond.true, label %cond.false

cond.true:                                        ; preds = %entry
  br label %cond.end

cond.false:                                       ; preds = %entry
  call void @_serverAssert(ptr noundef @.str.84, ptr noundef @.str.50, i32 noundef 758)
  call void @abort() #11
  unreachable

2:                                                ; No predecessors!
  br label %cond.end

cond.end:                                         ; preds = %2, %cond.true
  %3 = load ptr, ptr %config, align 8
  %flags = getelementptr inbounds %struct.standardConfig, ptr %3, i32 0, i32 2
  %4 = load i32, ptr %flags, align 8
  %conv3 = zext i32 %4 to i64
  %and = and i64 %conv3, 256
  %tobool4 = icmp ne i64 %and, 0
  br i1 %tobool4, label %if.end, label %if.then

if.then:                                          ; preds = %cond.end
  %5 = load ptr, ptr %err.addr, align 8
  store ptr @.str.83, ptr %5, align 8
  store i32 0, ptr %retval, align 4
  br label %return

if.end:                                           ; preds = %cond.end
  %6 = load ptr, ptr %config, align 8
  %type = getelementptr inbounds %struct.standardConfig, ptr %6, i32 0, i32 5
  %7 = load i32, ptr %type, align 8
  switch i32 %7, label %sw.default [
    i32 0, label %sw.bb
    i32 3, label %sw.bb6
    i32 1, label %sw.bb11
    i32 4, label %sw.bb16
  ]

sw.bb:                                            ; preds = %if.end
  %8 = load ptr, ptr %config, align 8
  %privdata = getelementptr inbounds %struct.standardConfig, ptr %8, i32 0, i32 6
  %9 = load ptr, ptr %privdata, align 8
  %10 = load ptr, ptr %config, align 8
  %data = getelementptr inbounds %struct.standardConfig, ptr %10, i32 0, i32 4
  %default_value = getelementptr inbounds %struct.boolConfigData, ptr %data, i32 0, i32 1
  %11 = load i32, ptr %default_value, align 8
  %12 = load ptr, ptr %err.addr, align 8
  %call5 = call i32 @setModuleBoolConfig(ptr noundef %9, i32 noundef %11, ptr noundef %12)
  store i32 %call5, ptr %retval, align 4
  br label %return

sw.bb6:                                           ; preds = %if.end
  %13 = load ptr, ptr %config, align 8
  %privdata7 = getelementptr inbounds %struct.standardConfig, ptr %13, i32 0, i32 6
  %14 = load ptr, ptr %privdata7, align 8
  %15 = load ptr, ptr %config, align 8
  %data8 = getelementptr inbounds %struct.standardConfig, ptr %15, i32 0, i32 4
  %default_value9 = getelementptr inbounds %struct.sdsConfigData, ptr %data8, i32 0, i32 1
  %16 = load ptr, ptr %default_value9, align 8
  %17 = load ptr, ptr %err.addr, align 8
  %call10 = call i32 @setModuleStringConfig(ptr noundef %14, ptr noundef %16, ptr noundef %17)
  store i32 %call10, ptr %retval, align 4
  br label %return

sw.bb11:                                          ; preds = %if.end
  %18 = load ptr, ptr %config, align 8
  %privdata12 = getelementptr inbounds %struct.standardConfig, ptr %18, i32 0, i32 6
  %19 = load ptr, ptr %privdata12, align 8
  %20 = load ptr, ptr %config, align 8
  %data13 = getelementptr inbounds %struct.standardConfig, ptr %20, i32 0, i32 4
  %default_value14 = getelementptr inbounds %struct.numericConfigData, ptr %data13, i32 0, i32 5
  %21 = load i64, ptr %default_value14, align 8
  %22 = load ptr, ptr %err.addr, align 8
  %call15 = call i32 @setModuleNumericConfig(ptr noundef %19, i64 noundef %21, ptr noundef %22)
  store i32 %call15, ptr %retval, align 4
  br label %return

sw.bb16:                                          ; preds = %if.end
  %23 = load ptr, ptr %config, align 8
  %privdata17 = getelementptr inbounds %struct.standardConfig, ptr %23, i32 0, i32 6
  %24 = load ptr, ptr %privdata17, align 8
  %25 = load ptr, ptr %config, align 8
  %data18 = getelementptr inbounds %struct.standardConfig, ptr %25, i32 0, i32 4
  %default_value19 = getelementptr inbounds %struct.enumConfigData, ptr %data18, i32 0, i32 2
  %26 = load i32, ptr %default_value19, align 8
  %27 = load ptr, ptr %err.addr, align 8
  %call20 = call i32 @setModuleEnumConfig(ptr noundef %24, i32 noundef %26, ptr noundef %27)
  store i32 %call20, ptr %retval, align 4
  br label %return

sw.default:                                       ; preds = %if.end
  call void (ptr, i32, ptr, ...) @_serverPanic(ptr noundef @.str.50, i32 noundef 773, ptr noundef @.str.85)
  call void @abort() #11
  unreachable

return:                                           ; preds = %sw.bb16, %sw.bb11, %sw.bb6, %sw.bb, %if.then
  %28 = load i32, ptr %retval, align 4
  ret i32 %28
}