; Function Attrs: nounwind uwtable
define dso_local i32 @performModuleConfigSetDefaultFromName(ptr noundef %name, ptr noundef %err) local_unnamed_addr #2 {
entry:
  %0 = load ptr, ptr @configs, align 8
  %call.i = tail call ptr @dictFind(ptr noundef %0, ptr noundef %name) #24
  %tobool.not.i = icmp eq ptr %call.i, null
  br i1 %tobool.not.i, label %cond.false, label %lookupConfig.exit

lookupConfig.exit:                                ; preds = %entry
  %call1.i = tail call ptr @dictGetVal(ptr noundef nonnull %call.i) #24
  %tobool.not = icmp eq ptr %call1.i, null
  br i1 %tobool.not, label %cond.false, label %cond.end

cond.false:                                       ; preds = %entry, %lookupConfig.exit
  tail call void @_serverAssert(ptr noundef nonnull @.str.84, ptr noundef nonnull @.str.50, i32 noundef 758) #24
  tail call void @abort() #25
  unreachable

cond.end:                                         ; preds = %lookupConfig.exit
  %flags = getelementptr inbounds i8, ptr %call1.i, i64 16
  %1 = load i32, ptr %flags, align 8
  %2 = and i32 %1, 256
  %tobool4.not = icmp eq i32 %2, 0
  br i1 %tobool4.not, label %if.then, label %if.end

if.then:                                          ; preds = %cond.end
  store ptr @.str.83, ptr %err, align 8
  br label %return

if.end:                                           ; preds = %cond.end
  %type = getelementptr inbounds i8, ptr %call1.i, i64 112
  %3 = load i32, ptr %type, align 8
  switch i32 %3, label %sw.default [
    i32 0, label %sw.bb
    i32 3, label %sw.bb6
    i32 1, label %sw.bb11
    i32 4, label %sw.bb16
  ]

sw.bb:                                            ; preds = %if.end
  %privdata = getelementptr inbounds i8, ptr %call1.i, i64 120
  %4 = load ptr, ptr %privdata, align 8
  %default_value = getelementptr inbounds i8, ptr %call1.i, i64 72
  %5 = load i32, ptr %default_value, align 8
  %call5 = tail call i32 @setModuleBoolConfig(ptr noundef %4, i32 noundef %5, ptr noundef %err) #24
  br label %return

sw.bb6:                                           ; preds = %if.end
  %privdata7 = getelementptr inbounds i8, ptr %call1.i, i64 120
  %6 = load ptr, ptr %privdata7, align 8
  %default_value9 = getelementptr inbounds i8, ptr %call1.i, i64 72
  %7 = load ptr, ptr %default_value9, align 8
  %call10 = tail call i32 @setModuleStringConfig(ptr noundef %6, ptr noundef %7, ptr noundef %err) #24
  br label %return

sw.bb11:                                          ; preds = %if.end
  %privdata12 = getelementptr inbounds i8, ptr %call1.i, i64 120
  %8 = load ptr, ptr %privdata12, align 8
  %default_value14 = getelementptr inbounds i8, ptr %call1.i, i64 96
  %9 = load i64, ptr %default_value14, align 8
  %call15 = tail call i32 @setModuleNumericConfig(ptr noundef %8, i64 noundef %9, ptr noundef %err) #24
  br label %return

sw.bb16:                                          ; preds = %if.end
  %privdata17 = getelementptr inbounds i8, ptr %call1.i, i64 120
  %10 = load ptr, ptr %privdata17, align 8
  %default_value19 = getelementptr inbounds i8, ptr %call1.i, i64 80
  %11 = load i32, ptr %default_value19, align 8
  %call20 = tail call i32 @setModuleEnumConfig(ptr noundef %10, i32 noundef %11, ptr noundef %err) #24
  br label %return

sw.default:                                       ; preds = %if.end
  tail call void (ptr, i32, ptr, ...) @_serverPanic(ptr noundef nonnull @.str.50, i32 noundef 773, ptr noundef nonnull @.str.85) #24
  tail call void @abort() #25
  unreachable

return:                                           ; preds = %sw.bb16, %sw.bb11, %sw.bb6, %sw.bb, %if.then
  %retval.0 = phi i32 [ %call20, %sw.bb16 ], [ %call15, %sw.bb11 ], [ %call10, %sw.bb6 ], [ %call5, %sw.bb ], [ 0, %if.then ]
  ret i32 %retval.0
}